target datalayout = "e-m:e-p270:32:32-p271:32:32-p272:64:64-i64:64-i128:128-f80:128-n8:16:32:64-S128"
target triple = "x86_64-pc-linux-gnu"

%struct.rdp_field_info_t = type { ptr, i32, ptr, i32, i32, ptr }

@hf_rdp_bandwidth_resptype = internal global i32 0, align 4
@hf_rdp_bandwidth_measure_payload_len = internal global i32 0, align 4
@hf_rdp_bandwidth_measure_payload_data = internal global i32 0, align 4
@hf_rdp_network_characteristics_basertt = internal global i32 0, align 4
@hf_rdp_network_characteristics_bandwidth = internal global i32 0, align 4
@hf_rdp_network_characteristics_averagertt = internal global i32 0, align 4
@hf_rdp_rtt_measure_time_delta = internal global i32 0, align 4
@hf_rdp_rtt_measure_time_bytecount = internal global i32 0, align 4

; Function Attrs: null_pointer_is_valid sspstrong uwtable
define hidden i32 @dissect_rdp_bandwidth_req(ptr noundef %0, i32 noundef %1, ptr noundef %2, ptr noundef %3, i1 noundef zeroext %4) #0 {
  %6 = alloca ptr, align 8
  %7 = alloca i32, align 4
  %8 = alloca ptr, align 8
  %9 = alloca ptr, align 8
  %10 = alloca i8, align 1
  %11 = alloca i16, align 2
  %12 = alloca [5 x %struct.rdp_field_info_t], align 16
  %13 = alloca i8, align 1
  %14 = alloca i16, align 2
  store ptr %0, ptr %6, align 8
  store i32 %1, ptr %7, align 4
  store ptr %2, ptr %8, align 8
  store ptr %3, ptr %9, align 8
  %15 = zext i1 %4 to i8
  store i8 %15, ptr %10, align 1
  call void @llvm.lifetime.start.p0(i64 2, ptr %11) #15
  call void @llvm.lifetime.start.p0(i64 200, ptr %12) #15
  call void @llvm.memcpy.p0.p0.i64(ptr align 16 %12, ptr align 16 @__const.dissect_rdp_bandwidth_req.bandwidth_fields, i64 200, i1 false)
  call void @llvm.lifetime.start.p0(i64 1, ptr %13) #15
  %16 = load ptr, ptr %6, align 8
  %17 = load i32, ptr %7, align 4
  %18 = add i32 %17, 1
  %19 = call zeroext i8 @tvb_get_uint8(ptr noundef %16, i32 noundef %18)
  store i8 %19, ptr %13, align 1
  call void @llvm.lifetime.start.p0(i64 2, ptr %14) #15
  %20 = load ptr, ptr %6, align 8
  %21 = load i32, ptr %7, align 4
  %22 = add i32 %21, 4
  %23 = call zeroext i16 @tvb_get_uint16(ptr noundef %20, i32 noundef %22, i32 noundef -2147483648)
  store i16 %23, ptr %14, align 2
  %24 = load i8, ptr %13, align 1
  %25 = zext i8 %24 to i32
  %26 = icmp eq i32 %25, 1
  br i1 %26, label %27, label %30

27:                                               ; preds = %5
  %28 = getelementptr [5 x %struct.rdp_field_info_t], ptr %12, i64 0, i64 3
  %29 = getelementptr inbounds nuw %struct.rdp_field_info_t, ptr %28, i32 0, i32 0
  store ptr @hf_rdp_bandwidth_resptype, ptr %29, align 8
  br label %30

30:                                               ; preds = %27, %5
  %31 = load ptr, ptr %6, align 8
  %32 = load i32, ptr %7, align 4
  %33 = load ptr, ptr %8, align 8
  %34 = load ptr, ptr %9, align 8
  %35 = getelementptr inbounds [5 x %struct.rdp_field_info_t], ptr %12, i64 0, i64 0
  %36 = call i32 @dissect_rdp_fields(ptr noundef %31, i32 noundef %32, ptr noundef %33, ptr noundef %34, ptr noundef %35, i32 noundef 0)
  store i32 %36, ptr %7, align 4
  %37 = load i8, ptr %10, align 1, !range !6, !noundef !7
  %38 = trunc i8 %37 to i1
  br i1 %38, label %143, label %39

39:                                               ; preds = %30
  %40 = load i16, ptr %14, align 2
  %41 = zext i16 %40 to i32
  switch i32 %41, label %142 [
    i32 1, label %42
    i32 4097, label %42
    i32 20, label %43
    i32 276, label %43
    i32 4116, label %43
    i32 2, label %44
    i32 43, label %66
    i32 1065, label %66
    i32 1577, label %66
    i32 2112, label %93
    i32 2176, label %93
    i32 2240, label %93
  ]

42:                                               ; preds = %39, %39
  br label %142

43:                                               ; preds = %39, %39, %39
  br label %142

44:                                               ; preds = %39
  %45 = load ptr, ptr %6, align 8
  %46 = load i32, ptr %7, align 4
  %47 = call zeroext i16 @tvb_get_uint16(ptr noundef %45, i32 noundef %46, i32 noundef -2147483648)
  store i16 %47, ptr %11, align 2
  %48 = load ptr, ptr %9, align 8
  %49 = load i32, ptr @hf_rdp_bandwidth_measure_payload_len, align 4
  %50 = load ptr, ptr %6, align 8
  %51 = load i32, ptr %7, align 4
  %52 = call ptr @proto_tree_add_item(ptr noundef %48, i32 noundef %49, ptr noundef %50, i32 noundef %51, i32 noundef 2, i32 noundef -2147483648)
  %53 = load i32, ptr %7, align 4
  %54 = add i32 %53, 2
  store i32 %54, ptr %7, align 4
  %55 = load ptr, ptr %9, align 8
  %56 = load i32, ptr @hf_rdp_bandwidth_measure_payload_data, align 4
  %57 = load ptr, ptr %6, align 8
  %58 = load i32, ptr %7, align 4
  %59 = load i16, ptr %11, align 2
  %60 = zext i16 %59 to i32
  %61 = call ptr @proto_tree_add_item(ptr noundef %55, i32 noundef %56, ptr noundef %57, i32 noundef %58, i32 noundef %60, i32 noundef 0)
  %62 = load i16, ptr %11, align 2
  %63 = zext i16 %62 to i32
  %64 = load i32, ptr %7, align 4
  %65 = add i32 %64, %63
  store i32 %65, ptr %7, align 4
  br label %142

66:                                               ; preds = %39, %39, %39
  %67 = load i16, ptr %14, align 2
  %68 = zext i16 %67 to i32
  %69 = icmp eq i32 %68, 43
  br i1 %69, label %70, label %92

70:                                               ; preds = %66
  %71 = load ptr, ptr %6, align 8
  %72 = load i32, ptr %7, align 4
  %73 = call zeroext i16 @tvb_get_uint16(ptr noundef %71, i32 noundef %72, i32 noundef -2147483648)
  store i16 %73, ptr %11, align 2
  %74 = load ptr, ptr %9, align 8
  %75 = load i32, ptr @hf_rdp_bandwidth_measure_payload_len, align 4
  %76 = load ptr, ptr %6, align 8
  %77 = load i32, ptr %7, align 4
  %78 = call ptr @proto_tree_add_item(ptr noundef %74, i32 noundef %75, ptr noundef %76, i32 noundef %77, i32 noundef 2, i32 noundef -2147483648)
  %79 = load i32, ptr %7, align 4
  %80 = add i32 %79, 2
  store i32 %80, ptr %7, align 4
  %81 = load ptr, ptr %9, align 8
  %82 = load i32, ptr @hf_rdp_bandwidth_measure_payload_data, align 4
  %83 = load ptr, ptr %6, align 8
  %84 = load i32, ptr %7, align 4
  %85 = load i16, ptr %11, align 2
  %86 = zext i16 %85 to i32
  %87 = call ptr @proto_tree_add_item(ptr noundef %81, i32 noundef %82, ptr noundef %83, i32 noundef %84, i32 noundef %86, i32 noundef 0)
  %88 = load i16, ptr %11, align 2
  %89 = zext i16 %88 to i32
  %90 = load i32, ptr %7, align 4
  %91 = add i32 %90, %89
  store i32 %91, ptr %7, align 4
  br label %92

92:                                               ; preds = %70, %66
  br label %142

93:                                               ; preds = %39, %39, %39
  %94 = load i16, ptr %14, align 2
  %95 = zext i16 %94 to i32
  %96 = icmp eq i32 %95, 2112
  br i1 %96, label %101, label %97

97:                                               ; preds = %93
  %98 = load i16, ptr %14, align 2
  %99 = zext i16 %98 to i32
  %100 = icmp eq i32 %99, 2240
  br i1 %100, label %101, label %109

101:                                              ; preds = %97, %93
  %102 = load ptr, ptr %9, align 8
  %103 = load i32, ptr @hf_rdp_network_characteristics_basertt, align 4
  %104 = load ptr, ptr %6, align 8
  %105 = load i32, ptr %7, align 4
  %106 = call ptr @proto_tree_add_item(ptr noundef %102, i32 noundef %103, ptr noundef %104, i32 noundef %105, i32 noundef 4, i32 noundef -2147483648)
  %107 = load i32, ptr %7, align 4
  %108 = add i32 %107, 4
  store i32 %108, ptr %7, align 4
  br label %109

109:                                              ; preds = %101, %97
  %110 = load i16, ptr %14, align 2
  %111 = zext i16 %110 to i32
  %112 = icmp eq i32 %111, 2176
  br i1 %112, label %117, label %113

113:                                              ; preds = %109
  %114 = load i16, ptr %14, align 2
  %115 = zext i16 %114 to i32
  %116 = icmp eq i32 %115, 2240
  br i1 %116, label %117, label %125

117:                                              ; preds = %113, %109
  %118 = load ptr, ptr %9, align 8
  %119 = load i32, ptr @hf_rdp_network_characteristics_bandwidth, align 4
  %120 = load ptr, ptr %6, align 8
  %121 = load i32, ptr %7, align 4
  %122 = call ptr @proto_tree_add_item(ptr noundef %118, i32 noundef %119, ptr noundef %120, i32 noundef %121, i32 noundef 4, i32 noundef -2147483648)
  %123 = load i32, ptr %7, align 4
  %124 = add i32 %123, 4
  store i32 %124, ptr %7, align 4
  br label %125

125:                                              ; preds = %117, %113
  %126 = load i16, ptr %14, align 2
  %127 = zext i16 %126 to i32
  %128 = icmp eq i32 %127, 2112
  br i1 %128, label %133, label %129

129:                                              ; preds = %125
  %130 = load i16, ptr %14, align 2
  %131 = zext i16 %130 to i32
  %132 = icmp eq i32 %131, 2240
  br i1 %132, label %133, label %141

133:                                              ; preds = %129, %125
  %134 = load ptr, ptr %9, align 8
  %135 = load i32, ptr @hf_rdp_network_characteristics_averagertt, align 4
  %136 = load ptr, ptr %6, align 8
  %137 = load i32, ptr %7, align 4
  %138 = call ptr @proto_tree_add_item(ptr noundef %134, i32 noundef %135, ptr noundef %136, i32 noundef %137, i32 noundef 4, i32 noundef -2147483648)
  %139 = load i32, ptr %7, align 4
  %140 = add i32 %139, 4
  store i32 %140, ptr %7, align 4
  br label %141

141:                                              ; preds = %133, %129
  br label %142

142:                                              ; preds = %39, %141, %92, %44, %43, %42
  br label %162

143:                                              ; preds = %30
  %144 = load i16, ptr %14, align 2
  %145 = zext i16 %144 to i32
  switch i32 %145, label %161 [
    i32 0, label %161
    i32 3, label %146
    i32 11, label %146
  ]

146:                                              ; preds = %143, %143
  %147 = load ptr, ptr %9, align 8
  %148 = load i32, ptr @hf_rdp_rtt_measure_time_delta, align 4
  %149 = load ptr, ptr %6, align 8
  %150 = load i32, ptr %7, align 4
  %151 = call ptr @proto_tree_add_item(ptr noundef %147, i32 noundef %148, ptr noundef %149, i32 noundef %150, i32 noundef 4, i32 noundef -2147483648)
  %152 = load i32, ptr %7, align 4
  %153 = add i32 %152, 4
  store i32 %153, ptr %7, align 4
  %154 = load ptr, ptr %9, align 8
  %155 = load i32, ptr @hf_rdp_rtt_measure_time_bytecount, align 4
  %156 = load ptr, ptr %6, align 8
  %157 = load i32, ptr %7, align 4
  %158 = call ptr @proto_tree_add_item(ptr noundef %154, i32 noundef %155, ptr noundef %156, i32 noundef %157, i32 noundef 4, i32 noundef -2147483648)
  %159 = load i32, ptr %7, align 4
  %160 = add i32 %159, 4
  store i32 %160, ptr %7, align 4
  br label %161

161:                                              ; preds = %143, %146, %143
  br label %162

162:                                              ; preds = %161, %142
  %163 = load i32, ptr %7, align 4
  call void @llvm.lifetime.end.p0(i64 2, ptr %14) #15
  call void @llvm.lifetime.end.p0(i64 1, ptr %13) #15
  call void @llvm.lifetime.end.p0(i64 200, ptr %12) #15
  call void @llvm.lifetime.end.p0(i64 2, ptr %11) #15
  ret i32 %163
}