; Function Attrs: null_pointer_is_valid sspstrong uwtable
define hidden i32 @dissect_rdp_bandwidth_req(ptr noundef %0, i32 noundef %1, ptr noundef %2, ptr noundef %3, i1 noundef zeroext %4) local_unnamed_addr #0 {
  %6 = alloca [5 x %struct.rdp_field_info_t], align 16
  call void @llvm.lifetime.start.p0(i64 200, ptr nonnull %6) #14
  call void @llvm.memcpy.p0.p0.i64(ptr noundef nonnull align 16 dereferenceable(200) %6, ptr noundef nonnull align 16 dereferenceable(200) @__const.dissect_rdp_bandwidth_req.bandwidth_fields, i64 200, i1 false)
  %7 = add i32 %1, 1
  %8 = tail call zeroext i8 @tvb_get_uint8(ptr noundef %0, i32 noundef %7)
  %9 = add i32 %1, 4
  %10 = tail call zeroext i16 @tvb_get_uint16(ptr noundef %0, i32 noundef %9, i32 noundef -2147483648)
  %11 = icmp eq i8 %8, 1
  br i1 %11, label %12, label %14

12:                                               ; preds = %5
  %13 = getelementptr inbounds nuw i8, ptr %6, i64 120
  store ptr @hf_rdp_bandwidth_resptype, ptr %13, align 8
  br label %14

14:                                               ; preds = %12, %5
  %15 = call fastcc i32 @dissect_rdp_fields(ptr noundef %0, i32 noundef %1, ptr noundef %2, ptr noundef %3, ptr noundef nonnull %6, i32 noundef 0)
  br i1 %4, label %47, label %16

16:                                               ; preds = %14
  switch i16 %10, label %55 [
    i16 43, label %26
    i16 2, label %17
    i16 2240, label %35
    i16 2112, label %35
    i16 2176, label %.thread
  ]

17:                                               ; preds = %16
  %18 = tail call zeroext i16 @tvb_get_uint16(ptr noundef %0, i32 noundef %15, i32 noundef -2147483648)
  %19 = load i32, ptr @hf_rdp_bandwidth_measure_payload_len, align 4
  %20 = tail call ptr @proto_tree_add_item(ptr noundef %3, i32 noundef %19, ptr noundef %0, i32 noundef %15, i32 noundef 2, i32 noundef -2147483648)
  %21 = add i32 %15, 2
  %22 = load i32, ptr @hf_rdp_bandwidth_measure_payload_data, align 4
  %23 = zext i16 %18 to i32
  %24 = tail call ptr @proto_tree_add_item(ptr noundef %3, i32 noundef %22, ptr noundef %0, i32 noundef %21, i32 noundef %23, i32 noundef 0)
  %25 = add i32 %21, %23
  br label %55

26:                                               ; preds = %16
  %27 = tail call zeroext i16 @tvb_get_uint16(ptr noundef %0, i32 noundef %15, i32 noundef -2147483648)
  %28 = load i32, ptr @hf_rdp_bandwidth_measure_payload_len, align 4
  %29 = tail call ptr @proto_tree_add_item(ptr noundef %3, i32 noundef %28, ptr noundef %0, i32 noundef %15, i32 noundef 2, i32 noundef -2147483648)
  %30 = add i32 %15, 2
  %31 = load i32, ptr @hf_rdp_bandwidth_measure_payload_data, align 4
  %32 = zext i16 %27 to i32
  %33 = tail call ptr @proto_tree_add_item(ptr noundef %3, i32 noundef %31, ptr noundef %0, i32 noundef %30, i32 noundef %32, i32 noundef 0)
  %34 = add i32 %30, %32
  br label %55

35:                                               ; preds = %16, %16
  %36 = load i32, ptr @hf_rdp_network_characteristics_basertt, align 4
  %37 = tail call ptr @proto_tree_add_item(ptr noundef %3, i32 noundef %36, ptr noundef %0, i32 noundef %15, i32 noundef 4, i32 noundef -2147483648)
  %38 = add i32 %15, 4
  switch i16 %10, label %42 [
    i16 2240, label %.thread
    i16 2176, label %.thread
  ]

.thread:                                          ; preds = %16, %35, %35
  %.073 = phi i32 [ %38, %35 ], [ %38, %35 ], [ %15, %16 ]
  %39 = load i32, ptr @hf_rdp_network_characteristics_bandwidth, align 4
  %40 = tail call ptr @proto_tree_add_item(ptr noundef %3, i32 noundef %39, ptr noundef %0, i32 noundef %.073, i32 noundef 4, i32 noundef -2147483648)
  %41 = add i32 %.073, 4
  br label %42

42:                                               ; preds = %35, %.thread
  %.1 = phi i32 [ %41, %.thread ], [ %38, %35 ]
  switch i16 %10, label %55 [
    i16 2240, label %43
    i16 2112, label %43
  ]

43:                                               ; preds = %42, %42
  %44 = load i32, ptr @hf_rdp_network_characteristics_averagertt, align 4
  %45 = tail call ptr @proto_tree_add_item(ptr noundef %3, i32 noundef %44, ptr noundef %0, i32 noundef %.1, i32 noundef 4, i32 noundef -2147483648)
  %46 = add i32 %.1, 4
  br label %55

47:                                               ; preds = %14
  switch i16 %10, label %55 [
    i16 11, label %48
    i16 3, label %48
  ]

48:                                               ; preds = %47, %47
  %49 = load i32, ptr @hf_rdp_rtt_measure_time_delta, align 4
  %50 = tail call ptr @proto_tree_add_item(ptr noundef %3, i32 noundef %49, ptr noundef %0, i32 noundef %15, i32 noundef 4, i32 noundef -2147483648)
  %51 = add i32 %15, 4
  %52 = load i32, ptr @hf_rdp_rtt_measure_time_bytecount, align 4
  %53 = tail call ptr @proto_tree_add_item(ptr noundef %3, i32 noundef %52, ptr noundef %0, i32 noundef %51, i32 noundef 4, i32 noundef -2147483648)
  %54 = add i32 %15, 8
  br label %55

55:                                               ; preds = %16, %42, %47, %48, %17, %26, %43
  %.2 = phi i32 [ %15, %47 ], [ %54, %48 ], [ %25, %17 ], [ %34, %26 ], [ %46, %43 ], [ %.1, %42 ], [ %15, %16 ]
  call void @llvm.lifetime.end.p0(i64 200, ptr nonnull %6) #14
  ret i32 %.2
}